(dp0
VEnvironmental samples
p1
(dp2
S'3'
p3
I3999
sS'2'
p4
I10410
sS'4'
p5
I40707
ssVPhages
p6
(dp7
g5
I4349
ssVPlants and Fungi
p8
(dp9
S'1'
p10
I7003
sg3
I114400
sg4
I125402
sg5
I44615
ssVViruses
p11
(dp12
g5
I11395
ssVInvertebrates
p13
(dp14
g10
I2471
sg3
I68118
sg4
I209891
sg5
I102162
ssVBacteria
p15
(dp16
g10
I267094
sg3
I14673
sg4
I17661
sg5
I65314
ss.